(lp0
V 
p1
aVa
p2
aVb
p3
aVc
p4
aVd
p5
aVe
p6
aVf
p7
aVg
p8
aVh
p9
aVi
p10
aVj
p11
aVk
p12
aVl
p13
aVm
p14
aVn
p15
aVo
p16
aVp
p17
aVq
p18
aVr
p19
aVs
p20
aVt
p21
aVu
p22
aVv
p23
aVw
p24
aVx
p25
aVy
p26
aVz
p27
aV
p28
ag28
ag28
ag28
ag28
ag28
ag28
ag28
ag28
ag28
ag28
ag28
ag28
ag28
ag28
ag28
ag28
ag28
ag28
ag28
ag28
ag28
ag28
a.